; Function Attrs: mustprogress uwtable
define hidden void @_ZN2cv4IPPE10PoseSolver29generateSquareObjectCorners3DEdRKNS_12_OutputArrayE(ptr noundef nonnull readnone align 8 captures(none) dereferenceable(8) %0, double noundef %1, ptr noundef nonnull align 8 dereferenceable(24) %2) local_unnamed_addr #4 align 2 personality ptr @__gxx_personality_v0 {
  %4 = alloca %"class.cv::Mat", align 8
  tail call void @_ZNK2cv12_OutputArray6createEiiiibNS0_9DepthMaskE(ptr noundef nonnull align 8 dereferenceable(24) %2, i32 noundef 1, i32 noundef 4, i32 noundef 22, i32 noundef -1, i1 noundef zeroext false, i32 noundef 0)
  call void @llvm.lifetime.start.p0(i64 96, ptr nonnull %4) #19
  %5 = tail call noundef i32 @_ZNK2cv11_InputArray4kindEv(ptr noundef nonnull align 8 dereferenceable(24) %2), !noalias !272
  %6 = icmp eq i32 %5, 65536
  br i1 %6, label %7, label %10

7:                                                ; preds = %3
  %8 = getelementptr inbounds nuw i8, ptr %2, i64 8
  %9 = load ptr, ptr %8, align 8, !tbaa !8, !noalias !272
  call void @_ZN2cv3MatC1ERKS0_(ptr noundef nonnull align 8 dereferenceable(96) %4, ptr noundef nonnull align 8 dereferenceable(96) %9)
  br label %11

10:                                               ; preds = %3
  call void @_ZNK2cv11_InputArray7getMat_Ei(ptr dead_on_unwind nonnull writable sret(%"class.cv::Mat") align 8 %4, ptr noundef nonnull align 8 dereferenceable(24) %2, i32 noundef -1)
  br label %11

11:                                               ; preds = %7, %10
  %12 = fmul double %1, -5.000000e-01
  %13 = fmul double %1, 5.000000e-01
  %14 = getelementptr inbounds nuw i8, ptr %4, i64 16
  %15 = load ptr, ptr %14, align 8, !tbaa !101
  store double %12, ptr %15, align 8
  %.sroa.520.0..sroa_idx = getelementptr inbounds nuw i8, ptr %15, i64 8
  store double %13, ptr %.sroa.520.0..sroa_idx, align 8
  %.sroa.621.0..sroa_idx = getelementptr inbounds nuw i8, ptr %15, i64 16
  store double 0.000000e+00, ptr %.sroa.621.0..sroa_idx, align 8
  %16 = load ptr, ptr %14, align 8, !tbaa !101
  %17 = getelementptr inbounds nuw i8, ptr %16, i64 24
  store double %13, ptr %17, align 8
  %.sroa.517.0..sroa_idx = getelementptr inbounds nuw i8, ptr %16, i64 32
  store double %13, ptr %.sroa.517.0..sroa_idx, align 8
  %.sroa.618.0..sroa_idx = getelementptr inbounds nuw i8, ptr %16, i64 40
  store double 0.000000e+00, ptr %.sroa.618.0..sroa_idx, align 8
  %18 = getelementptr inbounds nuw i8, ptr %16, i64 48
  store double %13, ptr %18, align 8
  %.sroa.514.0..sroa_idx = getelementptr inbounds nuw i8, ptr %16, i64 56
  store double %12, ptr %.sroa.514.0..sroa_idx, align 8
  %.sroa.615.0..sroa_idx = getelementptr inbounds nuw i8, ptr %16, i64 64
  store double 0.000000e+00, ptr %.sroa.615.0..sroa_idx, align 8
  %19 = getelementptr inbounds nuw i8, ptr %16, i64 72
  store double %12, ptr %19, align 8
  %.sroa.5.0..sroa_idx = getelementptr inbounds nuw i8, ptr %16, i64 80
  store double %12, ptr %.sroa.5.0..sroa_idx, align 8
  %.sroa.6.0..sroa_idx = getelementptr inbounds nuw i8, ptr %16, i64 88
  store double 0.000000e+00, ptr %.sroa.6.0..sroa_idx, align 8
  call void @_ZN2cv3MatD1Ev(ptr noundef nonnull align 8 dereferenceable(96) %4) #19
  call void @llvm.lifetime.end.p0(i64 96, ptr nonnull %4) #19
  ret void
}